; Function Attrs: mustprogress nounwind uwtable
define hidden void @_ZN10WeakHandleC2EP10OopStorageP7oopDesc(ptr nocapture noundef nonnull writeonly align 8 dereferenceable(8) %0, ptr noundef nonnull %1, ptr noundef %2) unnamed_addr #0 align 2 {
  %4 = tail call noundef ptr @_ZN10OopStorage8allocateEv(ptr noundef nonnull align 8 dereferenceable(126) %1) #5
  store ptr %4, ptr %0, align 8
  %5 = icmp eq ptr %4, null
  br i1 %5, label %6, label %8

6:                                                ; preds = %3
  %7 = tail call noundef ptr @_ZNK10OopStorage4nameEv(ptr noundef nonnull align 8 dereferenceable(126) %1) #5
  tail call void (ptr, i32, i64, i32, ptr, ...) @_Z23report_vm_out_of_memoryPKcim11VMErrorTypeS0_z(ptr noundef nonnull @.str, i32 noundef 43, i64 noundef 8, i32 noundef -536870911, ptr noundef nonnull @.str.4, ptr noundef %7) #6
  unreachable

8:                                                ; preds = %3
  %9 = load ptr, ptr @_ZN14AccessInternal15RuntimeDispatchILm598084EP7oopDescLNS_11BarrierTypeE0EE11_store_funcE, align 8
  tail call void %9(ptr noundef nonnull %4, ptr noundef %2) #5
  ret void
}